target datalayout = "e-m:e-p270:32:32-p271:32:32-p272:64:64-i64:64-i128:128-f80:128-n8:16:32:64-S128"
target triple = "x86_64-pc-linux-gnu"

@hf_zbee_zdp_ext_addr = external global i32, align 4
@hf_zbee_zdp_nwk_addr = external global i32, align 4
@.str.1 = private unnamed_addr constant [19 x i8] c", Nwk Addr: 0x%04x\00", align 1
@hf_zbee_zdp_cache = external global i32, align 4
@.str.24 = private unnamed_addr constant [16 x i8] c", Cache: 0x%04x\00", align 1

; Function Attrs: nounwind uwtable
define hidden void @dissect_zbee_zdp_rsp_find_node_cache(ptr noundef %0, ptr noundef %1, ptr noundef %2) #0 {
  %4 = alloca ptr, align 8
  %5 = alloca ptr, align 8
  %6 = alloca ptr, align 8
  %7 = alloca i32, align 4
  %8 = alloca i32, align 4
  %9 = alloca i32, align 4
  store ptr %0, ptr %4, align 8
  store ptr %1, ptr %5, align 8
  store ptr %2, ptr %6, align 8
  store i32 0, ptr %7, align 4
  %10 = load ptr, ptr %6, align 8
  %11 = load i32, ptr @hf_zbee_zdp_cache, align 4
  %12 = load ptr, ptr %4, align 8
  %13 = load i32, ptr %7, align 4
  %14 = call ptr @proto_tree_add_item_ret_uint(ptr noundef %10, i32 noundef %11, ptr noundef %12, i32 noundef %13, i32 noundef 2, i32 noundef -2147483648, ptr noundef %9)
  %15 = load i32, ptr %7, align 4
  %16 = add i32 %15, 2
  store i32 %16, ptr %7, align 4
  %17 = load ptr, ptr %6, align 8
  %18 = load i32, ptr @hf_zbee_zdp_nwk_addr, align 4
  %19 = load ptr, ptr %4, align 8
  %20 = load i32, ptr %7, align 4
  %21 = call ptr @proto_tree_add_item_ret_uint(ptr noundef %17, i32 noundef %18, ptr noundef %19, i32 noundef %20, i32 noundef 2, i32 noundef -2147483648, ptr noundef %8)
  %22 = load i32, ptr %7, align 4
  %23 = add i32 %22, 2
  store i32 %23, ptr %7, align 4
  %24 = load ptr, ptr %6, align 8
  %25 = load i32, ptr @hf_zbee_zdp_ext_addr, align 4
  %26 = load ptr, ptr %4, align 8
  %27 = call i64 @zbee_parse_eui64(ptr noundef %24, i32 noundef %25, ptr noundef %26, ptr noundef %7, i32 noundef 8, ptr noundef null)
  %28 = load ptr, ptr %6, align 8
  %29 = load ptr, ptr %5, align 8
  %30 = load i32, ptr %9, align 4
  call void (ptr, ptr, ptr, ...) @zbee_append_info(ptr noundef %28, ptr noundef %29, ptr noundef @.str.24, i32 noundef %30)
  %31 = load ptr, ptr %6, align 8
  %32 = load ptr, ptr %5, align 8
  %33 = load i32, ptr %8, align 4
  call void (ptr, ptr, ptr, ...) @zbee_append_info(ptr noundef %31, ptr noundef %32, ptr noundef @.str.1, i32 noundef %33)
  %34 = load ptr, ptr %4, align 8
  %35 = load i32, ptr %7, align 4
  %36 = load ptr, ptr %5, align 8
  %37 = load ptr, ptr %6, align 8
  call void @zdp_dump_excess(ptr noundef %34, i32 noundef %35, ptr noundef %36, ptr noundef %37)
  ret void
}