; Function Attrs: nounwind uwtable
define hidden void @dissect_zbee_zdp_rsp_find_node_cache(ptr noundef %0, ptr noundef %1, ptr noundef %2) local_unnamed_addr #0 {
  %4 = alloca i32, align 4
  %5 = alloca i32, align 4
  %6 = alloca i32, align 4
  %7 = load i32, ptr @hf_zbee_zdp_cache, align 4
  %8 = call ptr @proto_tree_add_item_ret_uint(ptr noundef %2, i32 noundef %7, ptr noundef %0, i32 noundef 0, i32 noundef 2, i32 noundef -2147483648, ptr noundef nonnull %6) #2
  %9 = load i32, ptr @hf_zbee_zdp_nwk_addr, align 4
  %10 = call ptr @proto_tree_add_item_ret_uint(ptr noundef %2, i32 noundef %9, ptr noundef %0, i32 noundef 2, i32 noundef 2, i32 noundef -2147483648, ptr noundef nonnull %5) #2
  store i32 4, ptr %4, align 4
  %11 = load i32, ptr @hf_zbee_zdp_ext_addr, align 4
  %12 = call i64 @zbee_parse_eui64(ptr noundef %2, i32 noundef %11, ptr noundef %0, ptr noundef nonnull %4, i32 noundef 8, ptr noundef null) #2
  %13 = load i32, ptr %6, align 4
  call void (ptr, ptr, ptr, ...) @zbee_append_info(ptr noundef %2, ptr noundef %1, ptr noundef nonnull @.str.24, i32 noundef %13) #2
  %14 = load i32, ptr %5, align 4
  call void (ptr, ptr, ptr, ...) @zbee_append_info(ptr noundef %2, ptr noundef %1, ptr noundef nonnull @.str.1, i32 noundef %14) #2
  %15 = load i32, ptr %4, align 4
  call void @zdp_dump_excess(ptr noundef %0, i32 noundef %15, ptr noundef %1, ptr noundef %2) #2
  ret void
}